Certificate:
    Data:
        Version: 3 (0x2)
        Serial Number: 1 (0x1)
    Signature Algorithm: sm2sign-with-sm3
        Issuer: C=CN, ST=JS, O=Internet Widgits Pty Ltd, CN=sub-ca
        Validity
            Not Before: Jun 29 01:55:42 2020 GMT
            Not After : Jun 29 01:55:42 2021 GMT
        Subject: C=CN, ST=JS, O=Internet Widgits Pty Ltd, CN=CM
        Subject Public Key Info:
            Public Key Algorithm: id-ecPublicKey
                Public-Key: (256 bit)
                pub:
                    04:1d:c4:a5:c0:4a:0a:5a:2a:fa:f0:1b:20:b3:23:
                    7c:6c:45:bb:7b:ee:de:e1:a3:4c:8b:54:2e:a8:d6:
                    af:de:39:dd:f7:20:6e:ca:f7:53:9e:27:10:8c:b7:
                    02:30:a2:24:c8:9a:67:38:da:97:bb:e5:5f:89:1e:
                    1b:be:53:61:8d
                ASN1 OID: sm2p256v1
                NIST CURVE: SM2
        X509v3 extensions:
            X509v3 Basic Constraints: 
                CA:FALSE
            X509v3 Key Usage: 
                Key Encipherment
            Netscape Comment: 
                GmSSL Generated Certificate
            X509v3 Subject Key Identifier: 
                FE:7F:AB:8F:C4:2C:BE:1D:E9:E4:E1:54:6E:78:C6:50:16:41:DB:1C
            X509v3 Authority Key Identifier: 
                keyid:0F:51:53:44:B0:AD:92:F7:D6:09:35:81:BD:7D:5D:16:F8:8A:E2:9D

    Signature Algorithm: sm2sign-with-sm3
         30:46:02:21:00:92:aa:d3:02:8b:25:2b:67:62:73:f4:5c:66:
         f9:e4:14:7a:e8:b7:03:54:12:5e:5d:96:4b:c7:f7:42:88:e8:
         89:02:21:00:be:e7:b4:9c:24:12:40:03:8f:d4:f9:32:f1:c5:
         fd:2c:cd:bc:ed:30:84:de:66:39:e0:95:8d:e0:8c:4e:6c:43
-----BEGIN CERTIFICATE-----
MIICEDCCAbWgAwIBAgIBATAKBggqgRzPVQGDdTBOMQswCQYDVQQGEwJDTjELMAkG
A1UECAwCSlMxITAfBgNVBAoMGEludGVybmV0IFdpZGdpdHMgUHR5IEx0ZDEPMA0G
A1UEAwwGc3ViLWNhMB4XDTIwMDYyOTAxNTU0MloXDTIxMDYyOTAxNTU0MlowSjEL
MAkGA1UEBhMCQ04xCzAJBgNVBAgMAkpTMSEwHwYDVQQKDBhJbnRlcm5ldCBXaWRn
aXRzIFB0eSBMdGQxCzAJBgNVBAMMAkNNMFkwEwYHKoZIzj0CAQYIKoEcz1UBgi0D
QgAEHcSlwEoKWir68BsgsyN8bEW7e+7e4aNMi1QuqNav3jnd9yBuyvdTnicQjLcC
MKIkyJpnONqXu+VfiR4bvlNhjaOBhzCBhDAJBgNVHRMEAjAAMAsGA1UdDwQEAwIF
IDAqBglghkgBhvhCAQ0EHRYbR21TU0wgR2VuZXJhdGVkIENlcnRpZmljYXRlMB0G
A1UdDgQWBBT+f6uPxCy+Henk4VRueMZQFkHbHDAfBgNVHSMEGDAWgBQPUVNEsK2S
99YJNYG9fV0W+IrinTAKBggqgRzPVQGDdQNJADBGAiEAkqrTAoslK2dic/RcZvnk
FHrotwNUEl5dlkvH90KI6IkCIQC+57ScJBJAA4/U+TLxxf0szbztMITeZjnglY3g
jE5sQw==
-----END CERTIFICATE-----
