Certificate:
    Data:
        Version: 3 (0x2)
        Serial Number: 1 (0x1)
        Signature Algorithm: sha256WithRSAEncryption
        Issuer: C=CN, ST=SH, O=Demo, OU=Security, CN=TLS
        Validity
            Not Before: Dec 15 07:14:50 2021 GMT
            Not After : Dec 15 07:14:50 2022 GMT
        Subject: C=CN, ST=SH, O=Demo, OU=TLS, CN=Server
        Subject Public Key Info:
            Public Key Algorithm: rsaEncryption
                RSA Public-Key: (2048 bit)
                Modulus:
                    00:ae:2d:c5:26:2f:5c:71:51:bc:8e:42:fa:8b:8c:
                    34:12:c5:18:35:f8:51:65:68:a7:48:71:bc:f5:e1:
                    54:66:ff:d8:db:6c:b2:95:1b:3a:c1:f9:74:a2:dc:
                    04:7f:8a:fb:54:04:96:86:bf:9c:57:68:a0:26:b2:
                    31:4f:03:71:be:b0:cd:69:e9:e0:fb:6b:56:48:ef:
                    a3:b7:38:00:78:d5:b1:51:87:ae:34:f9:e8:07:25:
                    17:f3:7b:b5:7e:a4:53:4b:62:8b:59:0b:bf:72:ec:
                    0b:2d:17:1f:e2:17:dc:34:35:b8:e6:73:e4:5a:7b:
                    29:33:41:a9:42:4d:2a:aa:55:7e:d4:81:79:0b:48:
                    fb:e9:c2:04:fa:3d:e1:a0:07:dd:72:ed:54:5b:a2:
                    98:2b:b3:6b:f6:2d:70:6d:41:87:6b:17:22:4d:b6:
                    40:41:60:89:f2:98:61:17:69:28:0b:dc:57:8b:6d:
                    38:25:5a:7a:be:13:78:5b:eb:c1:46:c9:8d:b8:4d:
                    6a:e3:9c:19:1d:8a:c8:b4:02:eb:e6:99:e6:24:f3:
                    b2:f4:6d:0e:06:95:84:cb:ca:7d:e4:fc:94:e8:bd:
                    46:33:58:0b:59:e2:7c:11:97:d4:ec:90:f3:b6:c7:
                    bf:e6:27:39:b9:35:af:22:b3:ab:0c:65:ed:b3:83:
                    28:e3
                Exponent: 65537 (0x10001)
        X509v3 extensions:
            X509v3 Basic Constraints: 
                CA:FALSE
            Netscape Comment: 
                OpenSSL Generated Certificate
            X509v3 Subject Key Identifier: 
                66:42:58:F8:15:AD:05:3B:50:B5:ED:91:5B:F8:8D:D1:5B:EC:87:FE
            X509v3 Authority Key Identifier: 
                keyid:79:90:A7:4A:CA:CA:E0:B4:39:1E:D3:04:DD:35:70:B7:D3:51:9D:42

    Signature Algorithm: sha256WithRSAEncryption
         3f:8e:f4:25:bc:fd:1b:26:97:d9:f7:85:1d:fc:5d:aa:37:83:
         80:7d:8f:84:28:64:ec:02:52:8c:e5:9f:9e:c0:e5:c5:89:83:
         3b:df:c0:b1:f7:46:e2:97:c6:2c:33:98:7b:4d:f2:2c:ff:69:
         3f:de:4e:98:a4:e6:7a:5d:b1:3a:75:ac:4f:1c:90:f8:98:5f:
         f7:77:98:82:d0:52:8c:e6:44:f2:d2:fa:72:69:9b:d7:e5:34:
         87:4c:44:d6:71:9a:ab:b2:37:1d:cb:f9:de:99:59:bc:14:09:
         d1:98:dd:df:52:e0:f6:09:da:3a:ec:00:46:39:8a:59:a0:87:
         b0:06:d0:33:bb:a9:20:47:d4:8e:37:c6:d8:d5:e6:6f:1e:18:
         b2:74:29:1e:58:a3:85:d4:33:c7:69:5e:7d:77:cb:05:9d:a9:
         8c:58:d9:bc:f0:c2:73:c9:ce:59:d6:15:d1:0a:96:b8:56:13:
         f9:2c:4c:b7:87:20:13:24:0e:da:07:1c:be:0b:88:25:2d:ac:
         89:64:e9:cf:5a:b9:f3:05:1b:24:d1:63:99:e7:ed:f7:ad:fc:
         24:4b:42:2c:de:0f:4a:22:a3:7c:b1:70:21:62:0d:ad:d2:33:
         a2:4d:27:e4:0d:3a:a4:31:f5:cd:1e:5c:38:18:bd:fe:e5:ff:
         c5:9e:ae:19
-----BEGIN CERTIFICATE-----
MIIDiDCCAnCgAwIBAgIBATANBgkqhkiG9w0BAQsFADBKMQswCQYDVQQGEwJDTjEL
MAkGA1UECAwCU0gxDTALBgNVBAoMBERlbW8xETAPBgNVBAsMCFNlY3VyaXR5MQww
CgYDVQQDDANUTFMwHhcNMjExMjE1MDcxNDUwWhcNMjIxMjE1MDcxNDUwWjBIMQsw
CQYDVQQGEwJDTjELMAkGA1UECAwCU0gxDTALBgNVBAoMBERlbW8xDDAKBgNVBAsM
A1RMUzEPMA0GA1UEAwwGU2VydmVyMIIBIjANBgkqhkiG9w0BAQEFAAOCAQ8AMIIB
CgKCAQEAri3FJi9ccVG8jkL6i4w0EsUYNfhRZWinSHG89eFUZv/Y22yylRs6wfl0
otwEf4r7VASWhr+cV2igJrIxTwNxvrDNaeng+2tWSO+jtzgAeNWxUYeuNPnoByUX
83u1fqRTS2KLWQu/cuwLLRcf4hfcNDW45nPkWnspM0GpQk0qqlV+1IF5C0j76cIE
+j3hoAfdcu1UW6KYK7Nr9i1wbUGHaxciTbZAQWCJ8phhF2koC9xXi204JVp6vhN4
W+vBRsmNuE1q45wZHYrItALr5pnmJPOy9G0OBpWEy8p95PyU6L1GM1gLWeJ8EZfU
7JDztse/5ic5uTWvIrOrDGXts4Mo4wIDAQABo3sweTAJBgNVHRMEAjAAMCwGCWCG
SAGG+EIBDQQfFh1PcGVuU1NMIEdlbmVyYXRlZCBDZXJ0aWZpY2F0ZTAdBgNVHQ4E
FgQUZkJY+BWtBTtQte2RW/iN0Vvsh/4wHwYDVR0jBBgwFoAUeZCnSsrK4LQ5HtME
3TVwt9NRnUIwDQYJKoZIhvcNAQELBQADggEBAD+O9CW8/Rsml9n3hR38Xao3g4B9
j4QoZOwCUozln57A5cWJgzvfwLH3RuKXxiwzmHtN8iz/aT/eTpik5npdsTp1rE8c
kPiYX/d3mILQUozmRPLS+nJpm9flNIdMRNZxmquyNx3L+d6ZWbwUCdGY3d9S4PYJ
2jrsAEY5ilmgh7AG0DO7qSBH1I43xtjV5m8eGLJ0KR5Yo4XUM8dpXn13ywWdqYxY
2bzwwnPJzlnWFdEKlrhWE/ksTLeHIBMkDtoHHL4LiCUtrIlk6c9aufMFGyTRY5nn
7fet/CRLQizeD0oio3yxcCFiDa3SM6JNJ+QNOqQx9c0eXDgYvf7l/8Werhk=
-----END CERTIFICATE-----
