Certificate:
    Data:
        Version: 3 (0x2)
        Serial Number: 1 (0x1)
        Signature Algorithm: sha256WithRSAEncryption
        Issuer: C=CN, ST=SH, L=SH, O=Demo, OU=security
        Validity
            Not Before: Dec 15 06:47:46 2021 GMT
            Not After : Dec 15 06:47:46 2022 GMT
        Subject: C=CN, ST=SH, O=Demo, OU=Security, CN=TLS
        Subject Public Key Info:
            Public Key Algorithm: rsaEncryption
                RSA Public-Key: (2048 bit)
                Modulus:
                    00:9e:77:58:7b:2d:07:4a:18:79:5f:96:3e:1f:1b:
                    1f:21:89:ee:2d:74:42:35:bd:df:73:bd:03:d9:1a:
                    df:aa:99:9c:bf:0c:71:a8:66:26:66:d5:9a:40:6e:
                    42:0b:22:cf:9a:16:62:4a:42:06:44:ab:91:71:1a:
                    9b:0c:ea:a6:df:62:6f:48:d9:fc:ff:5f:ba:1b:c0:
                    6c:b8:54:72:34:02:a6:0f:26:5d:ad:3e:a9:61:1a:
                    2b:1b:49:d6:a3:9d:4c:08:54:96:ab:d8:4d:5d:ff:
                    f2:ef:77:d8:40:a6:47:aa:10:1f:bb:94:07:9d:81:
                    db:12:34:03:99:3e:02:98:33:67:ef:78:42:2e:13:
                    ad:b4:61:e0:19:3f:b3:7b:7f:0d:27:17:9f:54:13:
                    2f:9c:79:e7:57:bc:6c:4c:a2:62:17:4b:05:ea:93:
                    8d:17:ce:c5:f0:45:d7:5d:50:14:ee:4f:21:a2:93:
                    0f:21:e3:88:54:ab:af:dd:8c:1a:b3:82:b0:a6:a0:
                    ae:0c:c7:2b:ef:a9:ec:43:1d:14:ba:24:8c:d7:18:
                    79:b8:c7:95:c0:13:63:7d:98:39:4a:d8:d6:44:4a:
                    46:bb:36:9b:49:13:3e:74:ef:c3:d2:cf:f0:83:21:
                    e1:a8:6d:6b:26:65:bf:27:7e:35:d9:ac:27:4e:8a:
                    76:95
                Exponent: 65537 (0x10001)
        X509v3 extensions:
            X509v3 Subject Key Identifier: 
                79:90:A7:4A:CA:CA:E0:B4:39:1E:D3:04:DD:35:70:B7:D3:51:9D:42
            X509v3 Authority Key Identifier: 
                keyid:C5:02:2A:C8:2D:F4:37:DB:57:3D:29:35:1F:78:4E:BC:CD:E4:C4:37

            X509v3 Basic Constraints: critical
                CA:TRUE
    Signature Algorithm: sha256WithRSAEncryption
         62:fa:3c:8b:cb:b5:1b:97:fb:40:f4:d4:54:fb:3c:69:f3:9b:
         73:f1:93:74:27:26:77:60:0d:35:3d:73:49:aa:9f:52:f3:e0:
         ba:b9:11:df:42:b2:28:6b:08:04:f4:1f:4f:be:5d:bc:62:8f:
         a5:00:fb:d5:dd:53:49:4d:3e:13:98:f6:f9:77:99:80:4b:68:
         aa:4e:e2:a6:70:44:24:a8:c9:34:af:11:3b:d2:e9:3b:e9:c0:
         70:69:34:97:83:7d:e2:ef:b8:eb:97:c9:54:a9:6b:53:2c:05:
         7b:0e:7d:29:dc:54:7f:5c:2a:78:90:5e:7c:c7:ae:e7:5a:b3:
         f8:1f:07:a5:2c:74:d2:16:d6:c6:76:26:bb:bb:ed:a2:60:64:
         05:de:bd:db:cd:a4:05:13:cb:b2:01:00:a4:2a:00:8f:2a:02:
         bf:e1:b8:00:f7:36:fb:c9:66:67:8c:92:b5:cb:c1:c7:af:e1:
         46:b2:29:c6:31:43:21:1e:c7:2d:82:07:5b:27:7b:ea:8d:c9:
         c5:b3:a4:45:8f:cd:fd:5c:c8:e3:a2:d8:54:a8:d0:cf:33:57:
         b6:23:e5:d9:33:c5:92:19:bf:ea:0a:2e:51:d7:d8:f9:9d:88:
         e7:61:c8:5e:41:41:d7:20:f2:e8:88:2a:3c:10:12:77:b4:a4:
         32:07:c3:a5
-----BEGIN CERTIFICATE-----
MIIDYTCCAkmgAwIBAgIBATANBgkqhkiG9w0BAQsFADBJMQswCQYDVQQGEwJDTjEL
MAkGA1UECAwCU0gxCzAJBgNVBAcMAlNIMQ0wCwYDVQQKDAREZW1vMREwDwYDVQQL
DAhzZWN1cml0eTAeFw0yMTEyMTUwNjQ3NDZaFw0yMjEyMTUwNjQ3NDZaMEoxCzAJ
BgNVBAYTAkNOMQswCQYDVQQIDAJTSDENMAsGA1UECgwERGVtbzERMA8GA1UECwwI
U2VjdXJpdHkxDDAKBgNVBAMMA1RMUzCCASIwDQYJKoZIhvcNAQEBBQADggEPADCC
AQoCggEBAJ53WHstB0oYeV+WPh8bHyGJ7i10QjW933O9A9ka36qZnL8McahmJmbV
mkBuQgsiz5oWYkpCBkSrkXEamwzqpt9ib0jZ/P9fuhvAbLhUcjQCpg8mXa0+qWEa
KxtJ1qOdTAhUlqvYTV3/8u932ECmR6oQH7uUB52B2xI0A5k+ApgzZ+94Qi4TrbRh
4Bk/s3t/DScXn1QTL5x551e8bEyiYhdLBeqTjRfOxfBF111QFO5PIaKTDyHjiFSr
r92MGrOCsKagrgzHK++p7EMdFLokjNcYebjHlcATY32YOUrY1kRKRrs2m0kTPnTv
w9LP8IMh4ahtayZlvyd+NdmsJ06KdpUCAwEAAaNTMFEwHQYDVR0OBBYEFHmQp0rK
yuC0OR7TBN01cLfTUZ1CMB8GA1UdIwQYMBaAFMUCKsgt9DfbVz0pNR94TrzN5MQ3
MA8GA1UdEwEB/wQFMAMBAf8wDQYJKoZIhvcNAQELBQADggEBAGL6PIvLtRuX+0D0
1FT7PGnzm3Pxk3QnJndgDTU9c0mqn1Lz4Lq5Ed9CsihrCAT0H0++Xbxij6UA+9Xd
U0lNPhOY9vl3mYBLaKpO4qZwRCSoyTSvETvS6TvpwHBpNJeDfeLvuOuXyVSpa1Ms
BXsOfSncVH9cKniQXnzHrudas/gfB6UsdNIW1sZ2Jru77aJgZAXevdvNpAUTy7IB
AKQqAI8qAr/huAD3NvvJZmeMkrXLwcev4UayKcYxQyEexy2CB1sne+qNycWzpEWP
zf1cyOOi2FSo0M8zV7Yj5dkzxZIZv+oKLlHX2PmdiOdhyF5BQdcg8uiIKjwQEne0
pDIHw6U=
-----END CERTIFICATE-----
